target datalayout = "e-m:e-p270:32:32-p271:32:32-p272:64:64-i64:64-i128:128-f80:128-n8:16:32:64-S128"
target triple = "x86_64-pc-linux-gnu"

%struct.lxb_dom_node = type { %struct.lxb_dom_event_target, i64, i64, i64, ptr, ptr, ptr, ptr, ptr, ptr, ptr, i32, i64 }
%struct.lxb_dom_event_target = type { ptr }
%struct.lxb_html_tree = type { ptr, ptr, ptr, ptr, ptr, ptr, ptr, %struct.lxb_html_tree_pending_table_t, ptr, i8, i8, i8, i8, i8, i8, ptr, ptr, ptr, i32, i64 }
%struct.lxb_html_tree_pending_table_t = type { ptr, i8 }
%struct.lexbor_array_t = type { ptr, i64, i64 }

@lxb_html_tree_active_formatting_marker_node_static = internal global ptr @lxb_html_tree_active_formatting_marker_static, align 8

; Function Attrs: inlinehint nounwind uwtable
define internal i32 @lxb_html_tree_active_formatting_push(ptr noundef %0, ptr noundef %1) #5 {
  %3 = alloca ptr, align 8
  %4 = alloca ptr, align 8
  store ptr %0, ptr %3, align 8, !tbaa !4
  store ptr %1, ptr %4, align 8, !tbaa !23
  %5 = load ptr, ptr %3, align 8, !tbaa !4
  %6 = getelementptr inbounds nuw %struct.lxb_html_tree, ptr %5, i32 0, i32 5
  %7 = load ptr, ptr %6, align 8, !tbaa !9
  %8 = load ptr, ptr %4, align 8, !tbaa !23
  %9 = call i32 @lexbor_array_push(ptr noundef %7, ptr noundef %8)
  ret i32 %9
}

; Function Attrs: inlinehint nounwind uwtable
define internal void @lxb_html_tree_active_formatting_remove(ptr noundef %0, i64 noundef %1) #5 {
  %3 = alloca ptr, align 8
  %4 = alloca i64, align 8
  store ptr %0, ptr %3, align 8, !tbaa !4
  store i64 %1, ptr %4, align 8, !tbaa !24
  %5 = load ptr, ptr %3, align 8, !tbaa !4
  %6 = getelementptr inbounds nuw %struct.lxb_html_tree, ptr %5, i32 0, i32 5
  %7 = load ptr, ptr %6, align 8, !tbaa !9
  %8 = load i64, ptr %4, align 8, !tbaa !24
  call void @lexbor_array_delete(ptr noundef %7, i64 noundef %8, i64 noundef 1)
  ret void
}

; Function Attrs: nounwind uwtable
define hidden void @lxb_html_tree_active_formatting_push_with_check_dupl(ptr noundef %0, ptr noundef %1) #0 {
  %3 = alloca ptr, align 8
  %4 = alloca ptr, align 8
  %5 = alloca ptr, align 8
  %6 = alloca i64, align 8
  %7 = alloca i64, align 8
  %8 = alloca i64, align 8
  store ptr %0, ptr %3, align 8, !tbaa !4
  store ptr %1, ptr %4, align 8, !tbaa !23
  call void @llvm.lifetime.start.p0(i64 8, ptr %5) #6
  %9 = load ptr, ptr %3, align 8, !tbaa !4
  %10 = getelementptr inbounds nuw %struct.lxb_html_tree, ptr %9, i32 0, i32 5
  %11 = load ptr, ptr %10, align 8, !tbaa !9
  %12 = getelementptr inbounds nuw %struct.lexbor_array_t, ptr %11, i32 0, i32 0
  %13 = load ptr, ptr %12, align 8, !tbaa !19
  store ptr %13, ptr %5, align 8, !tbaa !38
  call void @llvm.lifetime.start.p0(i64 8, ptr %6) #6
  %14 = load ptr, ptr %3, align 8, !tbaa !4
  %15 = getelementptr inbounds nuw %struct.lxb_html_tree, ptr %14, i32 0, i32 5
  %16 = load ptr, ptr %15, align 8, !tbaa !9
  %17 = getelementptr inbounds nuw %struct.lexbor_array_t, ptr %16, i32 0, i32 2
  %18 = load i64, ptr %17, align 8, !tbaa !22
  store i64 %18, ptr %6, align 8, !tbaa !24
  call void @llvm.lifetime.start.p0(i64 8, ptr %7) #6
  %19 = load i64, ptr %6, align 8, !tbaa !24
  %20 = icmp ne i64 %19, 0
  br i1 %20, label %21, label %24

21:                                               ; preds = %2
  %22 = load i64, ptr %6, align 8, !tbaa !24
  %23 = sub i64 %22, 1
  br label %25

24:                                               ; preds = %2
  br label %25

25:                                               ; preds = %24, %21
  %26 = phi i64 [ %23, %21 ], [ 0, %24 ]
  store i64 %26, ptr %7, align 8, !tbaa !24
  call void @llvm.lifetime.start.p0(i64 8, ptr %8) #6
  store i64 0, ptr %8, align 8, !tbaa !24
  br label %27

27:                                               ; preds = %73, %25
  %28 = load i64, ptr %6, align 8, !tbaa !24
  %29 = icmp ne i64 %28, 0
  br i1 %29, label %30, label %74

30:                                               ; preds = %27
  %31 = load i64, ptr %6, align 8, !tbaa !24
  %32 = add i64 %31, -1
  store i64 %32, ptr %6, align 8, !tbaa !24
  %33 = load ptr, ptr %5, align 8, !tbaa !38
  %34 = load i64, ptr %6, align 8, !tbaa !24
  %35 = getelementptr inbounds nuw ptr, ptr %33, i64 %34
  %36 = load ptr, ptr %35, align 8, !tbaa !23
  %37 = load ptr, ptr @lxb_html_tree_active_formatting_marker_node_static, align 8, !tbaa !23
  %38 = icmp eq ptr %36, %37
  br i1 %38, label %39, label %40

39:                                               ; preds = %30
  br label %74

40:                                               ; preds = %30
  %41 = load ptr, ptr %5, align 8, !tbaa !38
  %42 = load i64, ptr %6, align 8, !tbaa !24
  %43 = getelementptr inbounds nuw ptr, ptr %41, i64 %42
  %44 = load ptr, ptr %43, align 8, !tbaa !23
  %45 = getelementptr inbounds nuw %struct.lxb_dom_node, ptr %44, i32 0, i32 1
  %46 = load i64, ptr %45, align 8, !tbaa !27
  %47 = load ptr, ptr %4, align 8, !tbaa !23
  %48 = getelementptr inbounds nuw %struct.lxb_dom_node, ptr %47, i32 0, i32 1
  %49 = load i64, ptr %48, align 8, !tbaa !27
  %50 = icmp eq i64 %46, %49
  br i1 %50, label %51, label %73

51:                                               ; preds = %40
  %52 = load ptr, ptr %5, align 8, !tbaa !38
  %53 = load i64, ptr %6, align 8, !tbaa !24
  %54 = getelementptr inbounds nuw ptr, ptr %52, i64 %53
  %55 = load ptr, ptr %54, align 8, !tbaa !23
  %56 = getelementptr inbounds nuw %struct.lxb_dom_node, ptr %55, i32 0, i32 3
  %57 = load i64, ptr %56, align 8, !tbaa !40
  %58 = load ptr, ptr %4, align 8, !tbaa !23
  %59 = getelementptr inbounds nuw %struct.lxb_dom_node, ptr %58, i32 0, i32 3
  %60 = load i64, ptr %59, align 8, !tbaa !40
  %61 = icmp eq i64 %57, %60
  br i1 %61, label %62, label %73

62:                                               ; preds = %51
  %63 = load ptr, ptr %5, align 8, !tbaa !38
  %64 = load i64, ptr %6, align 8, !tbaa !24
  %65 = getelementptr inbounds nuw ptr, ptr %63, i64 %64
  %66 = load ptr, ptr %65, align 8, !tbaa !23
  %67 = load ptr, ptr %4, align 8, !tbaa !23
  %68 = call zeroext i1 @lxb_dom_element_compare(ptr noundef %66, ptr noundef %67)
  br i1 %68, label %69, label %73

69:                                               ; preds = %62
  %70 = load i64, ptr %8, align 8, !tbaa !24
  %71 = add i64 %70, 1
  store i64 %71, ptr %8, align 8, !tbaa !24
  %72 = load i64, ptr %6, align 8, !tbaa !24
  store i64 %72, ptr %7, align 8, !tbaa !24
  br label %73

73:                                               ; preds = %69, %62, %51, %40
  br label %27

74:                                               ; preds = %39, %27
  %75 = load i64, ptr %8, align 8, !tbaa !24
  %76 = icmp uge i64 %75, 3
  br i1 %76, label %77, label %80

77:                                               ; preds = %74
  %78 = load ptr, ptr %3, align 8, !tbaa !4
  %79 = load i64, ptr %7, align 8, !tbaa !24
  call void @lxb_html_tree_active_formatting_remove(ptr noundef %78, i64 noundef %79)
  br label %80

80:                                               ; preds = %77, %74
  %81 = load ptr, ptr %3, align 8, !tbaa !4
  %82 = load ptr, ptr %4, align 8, !tbaa !23
  %83 = call i32 @lxb_html_tree_active_formatting_push(ptr noundef %81, ptr noundef %82)
  call void @llvm.lifetime.end.p0(i64 8, ptr %8) #6
  call void @llvm.lifetime.end.p0(i64 8, ptr %7) #6
  call void @llvm.lifetime.end.p0(i64 8, ptr %6) #6
  call void @llvm.lifetime.end.p0(i64 8, ptr %5) #6
  ret void
}