; Function Attrs: nounwind uwtable
define hidden void @lxb_html_tree_active_formatting_push_with_check_dupl(ptr noundef readonly captures(none) %0, ptr noundef %1) local_unnamed_addr #5 {
  %3 = getelementptr inbounds nuw i8, ptr %0, i64 40
  %4 = load ptr, ptr %3, align 8, !tbaa !4
  %5 = load ptr, ptr %4, align 8, !tbaa !17
  %6 = getelementptr inbounds nuw i8, ptr %4, i64 16
  %7 = load i64, ptr %6, align 8, !tbaa !19
  %.not29 = icmp eq i64 %7, 0
  br i1 %.not29, label %._crit_edge.thread, label %.lr.ph

.lr.ph:                                           ; preds = %2
  %8 = add i64 %7, -1
  %9 = getelementptr inbounds nuw i8, ptr %1, i64 8
  %10 = getelementptr inbounds nuw i8, ptr %1, i64 24
  br label %11

11:                                               ; preds = %.lr.ph, %29
  %.032 = phi i64 [ 0, %.lr.ph ], [ %.1, %29 ]
  %.02331 = phi i64 [ %8, %.lr.ph ], [ %.124, %29 ]
  %.02530 = phi i64 [ %7, %.lr.ph ], [ %12, %29 ]
  %12 = add i64 %.02530, -1
  %13 = getelementptr inbounds nuw ptr, ptr %5, i64 %12
  %14 = load ptr, ptr %13, align 8, !tbaa !31
  %15 = icmp eq ptr %14, @lxb_html_tree_active_formatting_marker_static
  br i1 %15, label %._crit_edge, label %16

16:                                               ; preds = %11
  %17 = getelementptr inbounds nuw i8, ptr %14, i64 8
  %18 = load i64, ptr %17, align 8, !tbaa !22
  %19 = load i64, ptr %9, align 8, !tbaa !22
  %20 = icmp eq i64 %18, %19
  br i1 %20, label %21, label %29

21:                                               ; preds = %16
  %22 = getelementptr inbounds nuw i8, ptr %14, i64 24
  %23 = load i64, ptr %22, align 8, !tbaa !32
  %24 = load i64, ptr %10, align 8, !tbaa !32
  %25 = icmp eq i64 %23, %24
  br i1 %25, label %26, label %29

26:                                               ; preds = %21
  %27 = tail call zeroext i1 @lxb_dom_element_compare(ptr noundef %14, ptr noundef nonnull %1) #8
  %spec.select = select i1 %27, i64 %12, i64 %.02331
  %28 = zext i1 %27 to i64
  %spec.select27 = add i64 %.032, %28
  br label %29

29:                                               ; preds = %26, %21, %16
  %.124 = phi i64 [ %.02331, %21 ], [ %.02331, %16 ], [ %spec.select, %26 ]
  %.1 = phi i64 [ %.032, %21 ], [ %.032, %16 ], [ %spec.select27, %26 ]
  %.not = icmp eq i64 %12, 0
  br i1 %.not, label %._crit_edge, label %11

._crit_edge:                                      ; preds = %29, %11
  %.023.lcssa.ph = phi i64 [ %.124, %29 ], [ %.02331, %11 ]
  %.0.lcssa.ph = phi i64 [ %.1, %29 ], [ %.032, %11 ]
  %.val28.pre37.pre = load ptr, ptr %3, align 8, !tbaa !4
  %30 = icmp ugt i64 %.0.lcssa.ph, 2
  br i1 %30, label %31, label %._crit_edge.thread

31:                                               ; preds = %._crit_edge
  tail call void @lexbor_array_delete(ptr noundef %.val28.pre37.pre, i64 noundef %.023.lcssa.ph, i64 noundef 1) #8
  %.val28.pre = load ptr, ptr %3, align 8, !tbaa !4
  br label %._crit_edge.thread

._crit_edge.thread:                               ; preds = %2, %31, %._crit_edge
  %.val28 = phi ptr [ %.val28.pre, %31 ], [ %.val28.pre37.pre, %._crit_edge ], [ %4, %2 ]
  %32 = tail call i32 @lexbor_array_push(ptr noundef %.val28, ptr noundef %1) #8
  ret void
}